target datalayout = "e-m:e-p270:32:32-p271:32:32-p272:64:64-i64:64-i128:128-f80:128-n8:16:32:64-S128"
target triple = "x86_64-pc-linux-gnu"

%struct.strbuf = type { i64, i64, ptr }
%struct.object_id = type { [32 x i8], i32 }
%struct.command = type { ptr, ptr, ptr, ptr, i8, i32, %struct.object_id, %struct.object_id, [0 x i8] }

@the_repository = external global ptr, align 8
@strbuf_slopbuf = external global [0 x i8], align 1
@.str.115 = private unnamed_addr constant [11 x i8] c"./strbuf.h\00", align 1
@.str.116 = private unnamed_addr constant [30 x i8] c"strbuf_setlen() beyond buffer\00", align 1
@.str.123 = private unnamed_addr constant [3 x i8] c"%s\00", align 1
@__const.execute_commands_atomic.err = private unnamed_addr constant %struct.strbuf { i64 0, i64 0, ptr @strbuf_slopbuf }, align 8
@.str.150 = private unnamed_addr constant [20 x i8] c"atomic push failure\00", align 1
@transaction = internal global ptr null, align 8
@.str.151 = private unnamed_addr constant [28 x i8] c"transaction failed to start\00", align 1
@.str.152 = private unnamed_addr constant [26 x i8] c"atomic transaction failed\00", align 1

; Function Attrs: nounwind uwtable
define internal i32 @should_process_cmd(ptr noundef %0) #0 {
  %2 = alloca ptr, align 8
  store ptr %0, ptr %2, align 8, !tbaa !29
  %3 = load ptr, ptr %2, align 8, !tbaa !29
  %4 = getelementptr inbounds nuw %struct.command, ptr %3, i32 0, i32 1
  %5 = load ptr, ptr %4, align 8, !tbaa !11
  %6 = icmp ne ptr %5, null
  br i1 %6, label %15, label %7

7:                                                ; preds = %1
  %8 = load ptr, ptr %2, align 8, !tbaa !29
  %9 = getelementptr inbounds nuw %struct.command, ptr %8, i32 0, i32 4
  %10 = load i8, ptr %9, align 8
  %11 = and i8 %10, 1
  %12 = zext i8 %11 to i32
  %13 = icmp ne i32 %12, 0
  %14 = xor i1 %13, true
  br label %15

15:                                               ; preds = %7, %1
  %16 = phi i1 [ false, %1 ], [ %14, %7 ]
  %17 = zext i1 %16 to i32
  ret i32 %17
}

; Function Attrs: inlinehint nounwind uwtable
define internal void @strbuf_setlen(ptr noundef %0, i64 noundef %1) #5 {
  %3 = alloca ptr, align 8
  %4 = alloca i64, align 8
  store ptr %0, ptr %3, align 8, !tbaa !169
  store i64 %1, ptr %4, align 8, !tbaa !53
  %5 = load i64, ptr %4, align 8, !tbaa !53
  %6 = load ptr, ptr %3, align 8, !tbaa !169
  %7 = getelementptr inbounds nuw %struct.strbuf, ptr %6, i32 0, i32 0
  %8 = load i64, ptr %7, align 8, !tbaa !214
  %9 = icmp ne i64 %8, 0
  br i1 %9, label %10, label %15

10:                                               ; preds = %2
  %11 = load ptr, ptr %3, align 8, !tbaa !169
  %12 = getelementptr inbounds nuw %struct.strbuf, ptr %11, i32 0, i32 0
  %13 = load i64, ptr %12, align 8, !tbaa !214
  %14 = sub i64 %13, 1
  br label %16

15:                                               ; preds = %2
  br label %16

16:                                               ; preds = %15, %10
  %17 = phi i64 [ %14, %10 ], [ 0, %15 ]
  %18 = icmp ugt i64 %5, %17
  br i1 %18, label %19, label %20

19:                                               ; preds = %16
  call void (ptr, i32, ptr, ...) @BUG_fl(ptr noundef @.str.115, i32 noundef 167, ptr noundef @.str.116) #16
  unreachable

20:                                               ; preds = %16
  %21 = load i64, ptr %4, align 8, !tbaa !53
  %22 = load ptr, ptr %3, align 8, !tbaa !169
  %23 = getelementptr inbounds nuw %struct.strbuf, ptr %22, i32 0, i32 1
  store i64 %21, ptr %23, align 8, !tbaa !51
  %24 = load ptr, ptr %3, align 8, !tbaa !169
  %25 = getelementptr inbounds nuw %struct.strbuf, ptr %24, i32 0, i32 2
  %26 = load ptr, ptr %25, align 8, !tbaa !54
  %27 = icmp ne ptr %26, @strbuf_slopbuf
  br i1 %27, label %28, label %34

28:                                               ; preds = %20
  %29 = load ptr, ptr %3, align 8, !tbaa !169
  %30 = getelementptr inbounds nuw %struct.strbuf, ptr %29, i32 0, i32 2
  %31 = load ptr, ptr %30, align 8, !tbaa !54
  %32 = load i64, ptr %4, align 8, !tbaa !53
  %33 = getelementptr inbounds nuw i8, ptr %31, i64 %32
  store i8 0, ptr %33, align 1, !tbaa !44
  br label %35

34:                                               ; preds = %20
  br label %35

35:                                               ; preds = %34, %28
  ret void
}

; Function Attrs: nounwind uwtable
define internal void @execute_commands_atomic(ptr noundef %0, ptr noundef %1) #0 {
  %3 = alloca ptr, align 8
  %4 = alloca ptr, align 8
  %5 = alloca ptr, align 8
  %6 = alloca %struct.strbuf, align 8
  %7 = alloca ptr, align 8
  store ptr %0, ptr %3, align 8, !tbaa !29
  store ptr %1, ptr %4, align 8, !tbaa !100
  call void @llvm.lifetime.start.p0(i64 8, ptr %5) #15
  call void @llvm.lifetime.start.p0(i64 24, ptr %6) #15
  call void @llvm.memcpy.p0.p0.i64(ptr align 8 %6, ptr align 8 @__const.execute_commands_atomic.err, i64 24, i1 false)
  call void @llvm.lifetime.start.p0(i64 8, ptr %7) #15
  store ptr @.str.150, ptr %7, align 8, !tbaa !11
  %8 = load ptr, ptr @the_repository, align 8, !tbaa !13
  %9 = call ptr @get_main_ref_store(ptr noundef %8)
  %10 = call ptr @ref_store_transaction_begin(ptr noundef %9, i32 noundef 0, ptr noundef %6)
  store ptr %10, ptr @transaction, align 8, !tbaa !208
  %11 = load ptr, ptr @transaction, align 8, !tbaa !208
  %12 = icmp ne ptr %11, null
  br i1 %12, label %16, label %13

13:                                               ; preds = %2
  %14 = getelementptr inbounds nuw %struct.strbuf, ptr %6, i32 0, i32 2
  %15 = load ptr, ptr %14, align 8, !tbaa !54
  call void (ptr, ...) @rp_error(ptr noundef @.str.123, ptr noundef %15)
  call void @strbuf_setlen(ptr noundef %6, i64 noundef 0)
  store ptr @.str.151, ptr %7, align 8, !tbaa !11
  br label %58

16:                                               ; preds = %2
  %17 = load ptr, ptr %3, align 8, !tbaa !29
  store ptr %17, ptr %5, align 8, !tbaa !29
  br label %18

18:                                               ; preds = %46, %16
  %19 = load ptr, ptr %5, align 8, !tbaa !29
  %20 = icmp ne ptr %19, null
  br i1 %20, label %21, label %50

21:                                               ; preds = %18
  %22 = load ptr, ptr %5, align 8, !tbaa !29
  %23 = call i32 @should_process_cmd(ptr noundef %22)
  %24 = icmp ne i32 %23, 0
  br i1 %24, label %25, label %33

25:                                               ; preds = %21
  %26 = load ptr, ptr %5, align 8, !tbaa !29
  %27 = getelementptr inbounds nuw %struct.command, ptr %26, i32 0, i32 4
  %28 = load i8, ptr %27, align 8
  %29 = lshr i8 %28, 2
  %30 = and i8 %29, 3
  %31 = zext i8 %30 to i32
  %32 = icmp ne i32 %31, 0
  br i1 %32, label %33, label %34

33:                                               ; preds = %25, %21
  br label %46

34:                                               ; preds = %25
  %35 = load ptr, ptr %5, align 8, !tbaa !29
  %36 = load ptr, ptr %4, align 8, !tbaa !100
  %37 = call ptr @update(ptr noundef %35, ptr noundef %36)
  %38 = load ptr, ptr %5, align 8, !tbaa !29
  %39 = getelementptr inbounds nuw %struct.command, ptr %38, i32 0, i32 1
  store ptr %37, ptr %39, align 8, !tbaa !11
  %40 = load ptr, ptr %5, align 8, !tbaa !29
  %41 = getelementptr inbounds nuw %struct.command, ptr %40, i32 0, i32 1
  %42 = load ptr, ptr %41, align 8, !tbaa !11
  %43 = icmp ne ptr %42, null
  br i1 %43, label %44, label %45

44:                                               ; preds = %34
  br label %58

45:                                               ; preds = %34
  br label %46

46:                                               ; preds = %45, %33
  %47 = load ptr, ptr %5, align 8, !tbaa !29
  %48 = getelementptr inbounds nuw %struct.command, ptr %47, i32 0, i32 0
  %49 = load ptr, ptr %48, align 8, !tbaa !29
  store ptr %49, ptr %5, align 8, !tbaa !29
  br label %18, !llvm.loop !210

50:                                               ; preds = %18
  %51 = load ptr, ptr @transaction, align 8, !tbaa !208
  %52 = call i32 @ref_transaction_commit(ptr noundef %51, ptr noundef %6)
  %53 = icmp ne i32 %52, 0
  br i1 %53, label %54, label %57

54:                                               ; preds = %50
  %55 = getelementptr inbounds nuw %struct.strbuf, ptr %6, i32 0, i32 2
  %56 = load ptr, ptr %55, align 8, !tbaa !54
  call void (ptr, ...) @rp_error(ptr noundef @.str.123, ptr noundef %56)
  store ptr @.str.152, ptr %7, align 8, !tbaa !11
  br label %58

57:                                               ; preds = %50
  br label %78

58:                                               ; preds = %54, %44, %13
  %59 = load ptr, ptr %3, align 8, !tbaa !29
  store ptr %59, ptr %5, align 8, !tbaa !29
  br label %60

60:                                               ; preds = %73, %58
  %61 = load ptr, ptr %5, align 8, !tbaa !29
  %62 = icmp ne ptr %61, null
  br i1 %62, label %63, label %77

63:                                               ; preds = %60
  %64 = load ptr, ptr %5, align 8, !tbaa !29
  %65 = getelementptr inbounds nuw %struct.command, ptr %64, i32 0, i32 1
  %66 = load ptr, ptr %65, align 8, !tbaa !11
  %67 = icmp ne ptr %66, null
  br i1 %67, label %72, label %68

68:                                               ; preds = %63
  %69 = load ptr, ptr %7, align 8, !tbaa !11
  %70 = load ptr, ptr %5, align 8, !tbaa !29
  %71 = getelementptr inbounds nuw %struct.command, ptr %70, i32 0, i32 1
  store ptr %69, ptr %71, align 8, !tbaa !11
  br label %72

72:                                               ; preds = %68, %63
  br label %73

73:                                               ; preds = %72
  %74 = load ptr, ptr %5, align 8, !tbaa !29
  %75 = getelementptr inbounds nuw %struct.command, ptr %74, i32 0, i32 0
  %76 = load ptr, ptr %75, align 8, !tbaa !29
  store ptr %76, ptr %5, align 8, !tbaa !29
  br label %60, !llvm.loop !211

77:                                               ; preds = %60
  br label %78

78:                                               ; preds = %77, %57
  %79 = load ptr, ptr @transaction, align 8, !tbaa !208
  call void @ref_transaction_free(ptr noundef %79)
  call void @strbuf_release(ptr noundef %6)
  call void @llvm.lifetime.end.p0(i64 8, ptr %7) #15
  call void @llvm.lifetime.end.p0(i64 24, ptr %6) #15
  call void @llvm.lifetime.end.p0(i64 8, ptr %5) #15
  ret void
}