; Function Attrs: nounwind uwtable
define internal fastcc void @execute_commands_atomic(ptr noundef nonnull %0, ptr noundef nonnull %1) unnamed_addr #0 {
  %3 = alloca %struct.strbuf, align 8
  call void @llvm.lifetime.start.p0(i64 24, ptr nonnull %3) #21
  call void @llvm.memcpy.p0.p0.i64(ptr noundef nonnull align 8 dereferenceable(24) %3, ptr noundef nonnull align 8 dereferenceable(24) @__const.report.buf, i64 24, i1 false)
  %4 = load ptr, ptr @the_repository, align 8, !tbaa !22
  %5 = tail call ptr @get_main_ref_store(ptr noundef %4) #21
  %6 = call ptr @ref_store_transaction_begin(ptr noundef %5, i32 noundef 0, ptr noundef nonnull %3) #21
  store ptr %6, ptr @transaction, align 8, !tbaa !191
  %.not = icmp eq ptr %6, null
  br i1 %.not, label %7, label %.preheader

7:                                                ; preds = %2
  %8 = getelementptr inbounds nuw i8, ptr %3, i64 16
  %9 = load ptr, ptr %8, align 8, !tbaa !57
  call void (ptr, ...) @rp_error(ptr noundef nonnull @.str.123, ptr noundef %9)
  %10 = getelementptr inbounds nuw i8, ptr %3, i64 8
  store i64 0, ptr %10, align 8, !tbaa !56
  %11 = load ptr, ptr %8, align 8, !tbaa !57
  %.not9.i = icmp eq ptr %11, @strbuf_slopbuf
  br i1 %.not9.i, label %strbuf_setlen.exit, label %12

12:                                               ; preds = %7
  store i8 0, ptr %11, align 1, !tbaa !60
  br label %strbuf_setlen.exit

.preheader:                                       ; preds = %2, %should_process_cmd.exit.thread
  %.01524 = phi ptr [ %20, %should_process_cmd.exit.thread ], [ %0, %2 ]
  %13 = getelementptr inbounds nuw i8, ptr %.01524, i64 8
  %14 = load ptr, ptr %13, align 8, !tbaa !21
  %.not.i = icmp eq ptr %14, null
  br i1 %.not.i, label %should_process_cmd.exit, label %should_process_cmd.exit.thread

should_process_cmd.exit:                          ; preds = %.preheader
  %15 = getelementptr inbounds nuw i8, ptr %.01524, i64 32
  %16 = load i8, ptr %15, align 8
  %17 = and i8 %16, 13
  %or.cond = icmp eq i8 %17, 0
  br i1 %or.cond, label %18, label %should_process_cmd.exit.thread

18:                                               ; preds = %should_process_cmd.exit
  %19 = call fastcc ptr @update(ptr noundef %.01524, ptr noundef %1)
  store ptr %19, ptr %13, align 8, !tbaa !21
  %.not20 = icmp eq ptr %19, null
  br i1 %.not20, label %should_process_cmd.exit.thread, label %strbuf_setlen.exit

should_process_cmd.exit.thread:                   ; preds = %.preheader, %18, %should_process_cmd.exit
  %20 = load ptr, ptr %.01524, align 8, !tbaa !26
  %.not16 = icmp eq ptr %20, null
  br i1 %.not16, label %21, label %.preheader, !llvm.loop !193

21:                                               ; preds = %should_process_cmd.exit.thread
  %22 = load ptr, ptr @transaction, align 8, !tbaa !191
  %23 = call i32 @ref_transaction_commit(ptr noundef %22, ptr noundef nonnull %3) #21
  %.not17 = icmp eq i32 %23, 0
  br i1 %.not17, label %.loopexit, label %24

24:                                               ; preds = %21
  %25 = getelementptr inbounds nuw i8, ptr %3, i64 16
  %26 = load ptr, ptr %25, align 8, !tbaa !57
  call void (ptr, ...) @rp_error(ptr noundef nonnull @.str.123, ptr noundef %26)
  br label %strbuf_setlen.exit

strbuf_setlen.exit:                               ; preds = %18, %12, %7, %24
  %.0 = phi ptr [ @.str.152, %24 ], [ @.str.151, %7 ], [ @.str.151, %12 ], [ @.str.150, %18 ]
  br label %27

27:                                               ; preds = %strbuf_setlen.exit, %31
  %.125 = phi ptr [ %0, %strbuf_setlen.exit ], [ %32, %31 ]
  %28 = getelementptr inbounds nuw i8, ptr %.125, i64 8
  %29 = load ptr, ptr %28, align 8, !tbaa !21
  %.not22 = icmp eq ptr %29, null
  br i1 %.not22, label %30, label %31

30:                                               ; preds = %27
  store ptr %.0, ptr %28, align 8, !tbaa !21
  br label %31

31:                                               ; preds = %27, %30
  %32 = load ptr, ptr %.125, align 8, !tbaa !26
  %.not21 = icmp eq ptr %32, null
  br i1 %.not21, label %.loopexit, label %27, !llvm.loop !194

.loopexit:                                        ; preds = %31, %21
  %33 = load ptr, ptr @transaction, align 8, !tbaa !191
  call void @ref_transaction_free(ptr noundef %33) #21
  call void @strbuf_release(ptr noundef nonnull %3) #21
  call void @llvm.lifetime.end.p0(i64 24, ptr nonnull %3) #21
  ret void
}